; Function Attrs: mustprogress noreturn uwtable
define void @_ZNK2mu4Test12ParserTester5AbortEv(ptr nocapture nonnull readnone align 8 %0) local_unnamed_addr #13 align 2 {
  %2 = tail call noundef nonnull align 8 dereferenceable(8) ptr @_ZStlsISt11char_traitsIcEERSt13basic_ostreamIcT_ES5_PKc(ptr noundef nonnull align 8 dereferenceable(8) @_ZSt4cout, ptr noundef nonnull @.str.661)
  %3 = tail call noundef nonnull align 8 dereferenceable(8) ptr @_ZNSolsEPFRSoS_E(ptr noundef nonnull align 8 dereferenceable(8) %2, ptr noundef nonnull @_ZSt4endlIcSt11char_traitsIcEERSt13basic_ostreamIT_T0_ES6_)
  br label %4

4:                                                ; preds = %4, %1
  %5 = tail call i32 @getchar()
  %.not = icmp eq i32 %5, 0
  br i1 %.not, label %4, label %6, !llvm.loop !21

6:                                                ; preds = %4
  tail call void @exit(i32 noundef -1) #25
  unreachable
}